(lp0
cnumpy.core.multiarray
scalar
p1
(cnumpy
dtype
p2
(S'f8'
p3
I0
I1
tp4
Rp5
(I3
S'<'
p6
NNNI-1
I-1
I0
tp7
bS'\xac>{\xa1\xfa6\x1f?'
p8
tp9
Rp10
ag1
(g5
S'?\xf2\x19\x8c\x1c\xa0\x14?'
p11
tp12
Rp13
ag1
(g5
S'n\xb1\xca\x041\x1f\x12?'
p14
tp15
Rp16
a.