(lp0
cnumpy.core.multiarray
scalar
p1
(cnumpy
dtype
p2
(S'f8'
p3
I0
I1
tp4
Rp5
(I3
S'<'
p6
NNNI-1
I-1
I0
tp7
bS'\xf4rK\xb5\xe7,\x1a?'
p8
tp9
Rp10
ag1
(g5
S'\xcaSJ\x8c,2\x12?'
p11
tp12
Rp13
ag1
(g5
S'\x81#(\xc9\x89\xa7\x10?'
p14
tp15
Rp16
a.