(lp0
cnumpy.core.multiarray
scalar
p1
(cnumpy
dtype
p2
(S'f8'
p3
I0
I1
tp4
Rp5
(I3
S'<'
p6
NNNI-1
I-1
I0
tp7
bS';D\t\x02\xcd\xb5\x15?'
p8
tp9
Rp10
ag1
(g5
S'GT@\x19\x85K\x11?'
p11
tp12
Rp13
ag1
(g5
S'$\x9b\x13\xae3\xf0\x0f?'
p14
tp15
Rp16
a.