(lp0
cnumpy.core.multiarray
scalar
p1
(cnumpy
dtype
p2
(S'f8'
p3
I0
I1
tp4
Rp5
(I3
S'<'
p6
NNNI-1
I-1
I0
tp7
bS'\x1e\x19}\xdbE\xe0\x1e?'
p8
tp9
Rp10
ag1
(g5
S'\xd6\xe2U_\x05\xc9\x13?'
p11
tp12
Rp13
ag1
(g5
S'^\xef\xd4\xf2-U\x11?'
p14
tp15
Rp16
a.