(lp0
cnumpy.core.multiarray
scalar
p1
(cnumpy
dtype
p2
(S'f8'
p3
I0
I1
tp4
Rp5
(I3
S'<'
p6
NNNI-1
I-1
I0
tp7
bS'a\xc3ZkUJ#?'
p8
tp9
Rp10
ag1
(g5
S'|\x1aa\x99\xca&\x16?'
p11
tp12
Rp13
ag1
(g5
S'D\x07\xeb-\x15]\x12?'
p14
tp15
Rp16
a.