(lp0
cnumpy.core.multiarray
scalar
p1
(cnumpy
dtype
p2
(S'f8'
p3
I0
I1
tp4
Rp5
(I3
S'<'
p6
NNNI-1
I-1
I0
tp7
bS'\x18\n\xb1R:\x8f\x1b?'
p8
tp9
Rp10
ag1
(g5
S')\xba\x97\xb9^\xab\x13?'
p11
tp12
Rp13
ag1
(g5
S'`\xcb\xb6\x9c1\x0e\x11?'
p14
tp15
Rp16
a.