(lp0
cnumpy.core.multiarray
scalar
p1
(cnumpy
dtype
p2
(S'f8'
p3
I0
I1
tp4
Rp5
(I3
S'<'
p6
NNNI-1
I-1
I0
tp7
bS'\xdc\xe7n>q\x97\x1c?'
p8
tp9
Rp10
ag1
(g5
S'\x17\xa9\xf5\x93\xfc\x96\x15?'
p11
tp12
Rp13
ag1
(g5
S'\xb8\xbbw\t\x87\t\x13?'
p14
tp15
Rp16
a.