(lp0
cnumpy.core.multiarray
scalar
p1
(cnumpy
dtype
p2
(S'f8'
p3
I0
I1
tp4
Rp5
(I3
S'<'
p6
NNNI-1
I-1
I0
tp7
bS'mB\xaek\xdc\r\x1f?'
p8
tp9
Rp10
ag1
(g5
S'\xef\xd8\xa0^!\xf8\x14?'
p11
tp12
Rp13
ag1
(g5
S'\xf5\xd9\x0b\xed\xab\xbe\x11?'
p14
tp15
Rp16
a.