(lp0
cnumpy.core.multiarray
scalar
p1
(cnumpy
dtype
p2
(S'f8'
p3
I0
I1
tp4
Rp5
(I3
S'<'
p6
NNNI-1
I-1
I0
tp7
bS'sQz\xf4\xb6g\x1d?'
p8
tp9
Rp10
ag1
(g5
S'\xfc\xcel\x89b\xf8\x13?'
p11
tp12
Rp13
ag1
(g5
S'd\x87(\xc1\x9aT\x11?'
p14
tp15
Rp16
a.