(lp0
cnumpy.core.multiarray
scalar
p1
(cnumpy
dtype
p2
(S'f8'
p3
I0
I1
tp4
Rp5
(I3
S'<'
p6
NNNI-1
I-1
I0
tp7
bS'\x8b\xb9\xa4pV/\xde?'
p8
tp9
Rp10
ag1
(g5
S'\xc8\xea\x11qV/\xde?'
p11
tp12
Rp13
ag1
(g5
S'3\xf2\x90pV/\xde?'
p14
tp15
Rp16
ag1
(g5
S'\x85\x02+pV/\xde?'
p17
tp18
Rp19
ag1
(g5
S'\xe1:qpV/\xde?'
p20
tp21
Rp22
ag1
(g5
S'`\xad?qV/\xde?'
p23
tp24
Rp25
ag1
(g5
S'\xed\xa0;pV/\xde?'
p26
tp27
Rp28
ag1
(g5
S'e\xb5\npV/\xde?'
p29
tp30
Rp31
ag1
(g5
S'\x01\xe1\xa6oV/\xde?'
p32
tp33
Rp34
ag1
(g5
S'Pu\x04qV/\xde?'
p35
tp36
Rp37
ag1
(g5
S'\x7fS\xdapV/\xde?'
p38
tp39
Rp40
ag1
(g5
S')\xd2\rqV/\xde?'
p41
tp42
Rp43
ag1
(g5
S'[\x9dKqV/\xde?'
p44
tp45
Rp46
ag1
(g5
S'S?\xb1pV/\xde?'
p47
tp48
Rp49
ag1
(g5
S's>aoV/\xde?'
p50
tp51
Rp52
ag1
(g5
S'\xcc\r\xd4oV/\xde?'
p53
tp54
Rp55
a.