(lp0
cnumpy.core.multiarray
scalar
p1
(cnumpy
dtype
p2
(S'f8'
p3
I0
I1
tp4
Rp5
(I3
S'<'
p6
NNNI-1
I-1
I0
tp7
bS'\xb4\x0f\xbe\xe7\x1e\x86\xe2?'
p8
tp9
Rp10
ag1
(g5
S'P\x17"\x054U\xe5?'
p11
tp12
Rp13
ag1
(g5
S'3\xe49\xdd\xcd\x03\xea?'
p14
tp15
Rp16
a.