(lp0
cnumpy.core.multiarray
scalar
p1
(cnumpy
dtype
p2
(S'f8'
p3
I0
I1
tp4
Rp5
(I3
S'<'
p6
NNNI-1
I-1
I0
tp7
bS'-\xe5%wR\xe5\xe2?'
p8
tp9
Rp10
ag1
(g5
S'\xc1\r\xe6s\x93\xb1\xe7?'
p11
tp12
Rp13
ag1
(g5
S'\x00\x00\x00\xe0\xe3?\xea?'
p14
tp15
Rp16
a.