(lp0
cnumpy.core.multiarray
scalar
p1
(cnumpy
dtype
p2
(S'f8'
p3
I0
I1
tp4
Rp5
(I3
S'<'
p6
NNNI-1
I-1
I0
tp7
bS'/\xbf\xb0\x18\x9c\x80\xe3?'
p8
tp9
Rp10
ag1
(g5
S'\xb5\xff\x05\x05\x9eX\xe7?'
p11
tp12
Rp13
ag1
(g5
S'a4\xce|\x15H\xea?'
p14
tp15
Rp16
a.