(lp0
cnumpy.core.multiarray
scalar
p1
(cnumpy
dtype
p2
(S'f8'
p3
I0
I1
tp4
Rp5
(I3
S'<'
p6
NNNI-1
I-1
I0
tp7
bS'p\x8d\xac\xce\xc3\xd1\xe3?'
p8
tp9
Rp10
ag1
(g5
S'GT@y5\xb8\xe7?'
p11
tp12
Rp13
ag1
(g5
S'\x8f\x15Fc\xf6D\xea?'
p14
tp15
Rp16
a.