(lp0
cnumpy.core.multiarray
scalar
p1
(cnumpy
dtype
p2
(S'f8'
p3
I0
I1
tp4
Rp5
(I3
S'<'
p6
NNNI-1
I-1
I0
tp7
bS'\x1e\x1f\x82\xb4\xf5R\xe3?'
p8
tp9
Rp10
ag1
(g5
S'\x0b \xef9`\xcb\xe6?'
p11
tp12
Rp13
ag1
(g5
S'C\x98\xcet\x87&\xea?'
p14
tp15
Rp16
a.